target datalayout = "e-m:e-p270:32:32-p271:32:32-p272:64:64-i64:64-i128:128-f80:128-n8:16:32:64-S128"
target triple = "x86_64-pc-linux-gnu"

@stdout = external global ptr, align 8
@.str.19 = private unnamed_addr constant [80 x i8] c"usage: %s -i <in_file.h5>  [-o <out_file.h5> ] [-u <out_user_file> | --delete]\0A\00", align 1
@.str.20 = private unnamed_addr constant [2 x i8] c"\0A\00", align 1
@.str.21 = private unnamed_addr constant [79 x i8] c"Splits user file and HDF5 file into two files: user block data and HDF5 data.\0A\00", align 1
@.str.22 = private unnamed_addr constant [9 x i8] c"OPTIONS\0A\00", align 1
@.str.23 = private unnamed_addr constant [72 x i8] c"  -i in_file.h5   Specifies the HDF5 as input.  If the input HDF5 file\0A\00", align 1
@.str.24 = private unnamed_addr constant [71 x i8] c"                  contains no user block, exit with an error message.\0A\00", align 1
@.str.25 = private unnamed_addr constant [68 x i8] c"  -o out_file.h5  Specifies output HDF5 file without a user block.\0A\00", align 1
@.str.26 = private unnamed_addr constant [77 x i8] c"                  If not specified, the user block will be removed from the\0A\00", align 1
@.str.27 = private unnamed_addr constant [36 x i8] c"                  input HDF5 file.\0A\00", align 1
@.str.28 = private unnamed_addr constant [20 x i8] c"  -u out_user_file\0A\00", align 1
@.str.29 = private unnamed_addr constant [74 x i8] c"                  Specifies the output file containing the data from the\0A\00", align 1
@.str.30 = private unnamed_addr constant [31 x i8] c"                  user block.\0A\00", align 1
@.str.31 = private unnamed_addr constant [56 x i8] c"                  Cannot be used with --delete option.\0A\00", align 1
@.str.32 = private unnamed_addr constant [79 x i8] c"  --delete        Remove the user block from the input HDF5 file. The content\0A\00", align 1
@.str.33 = private unnamed_addr constant [51 x i8] c"                  of the user block is discarded.\0A\00", align 1
@.str.34 = private unnamed_addr constant [54 x i8] c"                  Cannot be used with the -u option.\0A\00", align 1
@.str.35 = private unnamed_addr constant [53 x i8] c"  -h              Prints a usage message and exits.\0A\00", align 1
@.str.36 = private unnamed_addr constant [62 x i8] c"  -V              Prints the HDF5 library version and exits.\0A\00", align 1
@.str.37 = private unnamed_addr constant [79 x i8] c"  If neither --delete nor -u is specified, the user block from the input file\0A\00", align 1
@.str.38 = private unnamed_addr constant [32 x i8] c"  will be displayed to stdout.\0A\00", align 1
@.str.39 = private unnamed_addr constant [14 x i8] c"Exit Status:\0A\00", align 1
@.str.40 = private unnamed_addr constant [21 x i8] c"  0      Succeeded.\0A\00", align 1
@.str.41 = private unnamed_addr constant [28 x i8] c"  >0    An error occurred.\0A\00", align 1

; Function Attrs: nounwind uwtable
define internal void @usage(ptr noundef %0) #0 {
  %2 = alloca ptr, align 8
  store ptr %0, ptr %2, align 8, !tbaa !13
  %3 = load ptr, ptr @stdout, align 8, !tbaa !15
  %4 = call i32 @fflush(ptr noundef %3)
  %5 = load ptr, ptr @stdout, align 8, !tbaa !15
  %6 = load ptr, ptr %2, align 8, !tbaa !13
  %7 = call i32 (ptr, ptr, ...) @fprintf(ptr noundef %5, ptr noundef @.str.19, ptr noundef %6) #6
  %8 = load ptr, ptr @stdout, align 8, !tbaa !15
  %9 = call i32 (ptr, ptr, ...) @fprintf(ptr noundef %8, ptr noundef @.str.20) #6
  %10 = load ptr, ptr @stdout, align 8, !tbaa !15
  %11 = call i32 (ptr, ptr, ...) @fprintf(ptr noundef %10, ptr noundef @.str.21) #6
  %12 = load ptr, ptr @stdout, align 8, !tbaa !15
  %13 = call i32 (ptr, ptr, ...) @fprintf(ptr noundef %12, ptr noundef @.str.20) #6
  %14 = load ptr, ptr @stdout, align 8, !tbaa !15
  %15 = call i32 (ptr, ptr, ...) @fprintf(ptr noundef %14, ptr noundef @.str.22) #6
  %16 = load ptr, ptr @stdout, align 8, !tbaa !15
  %17 = call i32 (ptr, ptr, ...) @fprintf(ptr noundef %16, ptr noundef @.str.23) #6
  %18 = load ptr, ptr @stdout, align 8, !tbaa !15
  %19 = call i32 (ptr, ptr, ...) @fprintf(ptr noundef %18, ptr noundef @.str.24) #6
  %20 = load ptr, ptr @stdout, align 8, !tbaa !15
  %21 = call i32 (ptr, ptr, ...) @fprintf(ptr noundef %20, ptr noundef @.str.25) #6
  %22 = load ptr, ptr @stdout, align 8, !tbaa !15
  %23 = call i32 (ptr, ptr, ...) @fprintf(ptr noundef %22, ptr noundef @.str.26) #6
  %24 = load ptr, ptr @stdout, align 8, !tbaa !15
  %25 = call i32 (ptr, ptr, ...) @fprintf(ptr noundef %24, ptr noundef @.str.27) #6
  %26 = load ptr, ptr @stdout, align 8, !tbaa !15
  %27 = call i32 (ptr, ptr, ...) @fprintf(ptr noundef %26, ptr noundef @.str.28) #6
  %28 = load ptr, ptr @stdout, align 8, !tbaa !15
  %29 = call i32 (ptr, ptr, ...) @fprintf(ptr noundef %28, ptr noundef @.str.29) #6
  %30 = load ptr, ptr @stdout, align 8, !tbaa !15
  %31 = call i32 (ptr, ptr, ...) @fprintf(ptr noundef %30, ptr noundef @.str.30) #6
  %32 = load ptr, ptr @stdout, align 8, !tbaa !15
  %33 = call i32 (ptr, ptr, ...) @fprintf(ptr noundef %32, ptr noundef @.str.31) #6
  %34 = load ptr, ptr @stdout, align 8, !tbaa !15
  %35 = call i32 (ptr, ptr, ...) @fprintf(ptr noundef %34, ptr noundef @.str.32) #6
  %36 = load ptr, ptr @stdout, align 8, !tbaa !15
  %37 = call i32 (ptr, ptr, ...) @fprintf(ptr noundef %36, ptr noundef @.str.33) #6
  %38 = load ptr, ptr @stdout, align 8, !tbaa !15
  %39 = call i32 (ptr, ptr, ...) @fprintf(ptr noundef %38, ptr noundef @.str.34) #6
  %40 = load ptr, ptr @stdout, align 8, !tbaa !15
  %41 = call i32 (ptr, ptr, ...) @fprintf(ptr noundef %40, ptr noundef @.str.20) #6
  %42 = load ptr, ptr @stdout, align 8, !tbaa !15
  %43 = call i32 (ptr, ptr, ...) @fprintf(ptr noundef %42, ptr noundef @.str.35) #6
  %44 = load ptr, ptr @stdout, align 8, !tbaa !15
  %45 = call i32 (ptr, ptr, ...) @fprintf(ptr noundef %44, ptr noundef @.str.36) #6
  %46 = load ptr, ptr @stdout, align 8, !tbaa !15
  %47 = call i32 (ptr, ptr, ...) @fprintf(ptr noundef %46, ptr noundef @.str.20) #6
  %48 = load ptr, ptr @stdout, align 8, !tbaa !15
  %49 = call i32 (ptr, ptr, ...) @fprintf(ptr noundef %48, ptr noundef @.str.37) #6
  %50 = load ptr, ptr @stdout, align 8, !tbaa !15
  %51 = call i32 (ptr, ptr, ...) @fprintf(ptr noundef %50, ptr noundef @.str.38) #6
  %52 = load ptr, ptr @stdout, align 8, !tbaa !15
  %53 = call i32 (ptr, ptr, ...) @fprintf(ptr noundef %52, ptr noundef @.str.20) #6
  %54 = load ptr, ptr @stdout, align 8, !tbaa !15
  %55 = call i32 (ptr, ptr, ...) @fprintf(ptr noundef %54, ptr noundef @.str.39) #6
  %56 = load ptr, ptr @stdout, align 8, !tbaa !15
  %57 = call i32 (ptr, ptr, ...) @fprintf(ptr noundef %56, ptr noundef @.str.40) #6
  %58 = load ptr, ptr @stdout, align 8, !tbaa !15
  %59 = call i32 (ptr, ptr, ...) @fprintf(ptr noundef %58, ptr noundef @.str.41) #6
  ret void
}