; Function Attrs: nofree nounwind uwtable
define internal fastcc void @usage(ptr noundef %0) unnamed_addr #5 {
  %2 = load ptr, ptr @stdout, align 8, !tbaa !9
  %3 = tail call i32 @fflush(ptr noundef %2)
  %4 = load ptr, ptr @stdout, align 8, !tbaa !9
  %5 = tail call i32 (ptr, ptr, ...) @fprintf(ptr noundef %4, ptr noundef nonnull @.str.19, ptr noundef %0) #12
  %6 = load ptr, ptr @stdout, align 8, !tbaa !9
  %fputc = tail call i32 @fputc(i32 10, ptr %6)
  %7 = load ptr, ptr @stdout, align 8, !tbaa !9
  %8 = tail call i64 @fwrite(ptr nonnull @.str.21, i64 78, i64 1, ptr %7)
  %9 = load ptr, ptr @stdout, align 8, !tbaa !9
  %fputc1 = tail call i32 @fputc(i32 10, ptr %9)
  %10 = load ptr, ptr @stdout, align 8, !tbaa !9
  %11 = tail call i64 @fwrite(ptr nonnull @.str.22, i64 8, i64 1, ptr %10)
  %12 = load ptr, ptr @stdout, align 8, !tbaa !9
  %13 = tail call i64 @fwrite(ptr nonnull @.str.23, i64 71, i64 1, ptr %12)
  %14 = load ptr, ptr @stdout, align 8, !tbaa !9
  %15 = tail call i64 @fwrite(ptr nonnull @.str.24, i64 70, i64 1, ptr %14)
  %16 = load ptr, ptr @stdout, align 8, !tbaa !9
  %17 = tail call i64 @fwrite(ptr nonnull @.str.25, i64 67, i64 1, ptr %16)
  %18 = load ptr, ptr @stdout, align 8, !tbaa !9
  %19 = tail call i64 @fwrite(ptr nonnull @.str.26, i64 76, i64 1, ptr %18)
  %20 = load ptr, ptr @stdout, align 8, !tbaa !9
  %21 = tail call i64 @fwrite(ptr nonnull @.str.27, i64 35, i64 1, ptr %20)
  %22 = load ptr, ptr @stdout, align 8, !tbaa !9
  %23 = tail call i64 @fwrite(ptr nonnull @.str.28, i64 19, i64 1, ptr %22)
  %24 = load ptr, ptr @stdout, align 8, !tbaa !9
  %25 = tail call i64 @fwrite(ptr nonnull @.str.29, i64 73, i64 1, ptr %24)
  %26 = load ptr, ptr @stdout, align 8, !tbaa !9
  %27 = tail call i64 @fwrite(ptr nonnull @.str.30, i64 30, i64 1, ptr %26)
  %28 = load ptr, ptr @stdout, align 8, !tbaa !9
  %29 = tail call i64 @fwrite(ptr nonnull @.str.31, i64 55, i64 1, ptr %28)
  %30 = load ptr, ptr @stdout, align 8, !tbaa !9
  %31 = tail call i64 @fwrite(ptr nonnull @.str.32, i64 78, i64 1, ptr %30)
  %32 = load ptr, ptr @stdout, align 8, !tbaa !9
  %33 = tail call i64 @fwrite(ptr nonnull @.str.33, i64 50, i64 1, ptr %32)
  %34 = load ptr, ptr @stdout, align 8, !tbaa !9
  %35 = tail call i64 @fwrite(ptr nonnull @.str.34, i64 53, i64 1, ptr %34)
  %36 = load ptr, ptr @stdout, align 8, !tbaa !9
  %fputc2 = tail call i32 @fputc(i32 10, ptr %36)
  %37 = load ptr, ptr @stdout, align 8, !tbaa !9
  %38 = tail call i64 @fwrite(ptr nonnull @.str.35, i64 52, i64 1, ptr %37)
  %39 = load ptr, ptr @stdout, align 8, !tbaa !9
  %40 = tail call i64 @fwrite(ptr nonnull @.str.36, i64 61, i64 1, ptr %39)
  %41 = load ptr, ptr @stdout, align 8, !tbaa !9
  %fputc3 = tail call i32 @fputc(i32 10, ptr %41)
  %42 = load ptr, ptr @stdout, align 8, !tbaa !9
  %43 = tail call i64 @fwrite(ptr nonnull @.str.37, i64 78, i64 1, ptr %42)
  %44 = load ptr, ptr @stdout, align 8, !tbaa !9
  %45 = tail call i64 @fwrite(ptr nonnull @.str.38, i64 31, i64 1, ptr %44)
  %46 = load ptr, ptr @stdout, align 8, !tbaa !9
  %fputc4 = tail call i32 @fputc(i32 10, ptr %46)
  %47 = load ptr, ptr @stdout, align 8, !tbaa !9
  %48 = tail call i64 @fwrite(ptr nonnull @.str.39, i64 13, i64 1, ptr %47)
  %49 = load ptr, ptr @stdout, align 8, !tbaa !9
  %50 = tail call i64 @fwrite(ptr nonnull @.str.40, i64 20, i64 1, ptr %49)
  %51 = load ptr, ptr @stdout, align 8, !tbaa !9
  %52 = tail call i64 @fwrite(ptr nonnull @.str.41, i64 27, i64 1, ptr %51)
  ret void
}